; Function Attrs: mustprogress uwtable
define hidden void @_ZN4cvc58internal6theory5arith6linear23SumOfInfeasibilitiesSPD10qeAddRangeEjj(ptr noundef nonnull align 8 dereferenceable(800) %this, i32 noundef %begin, i32 noundef %end) local_unnamed_addr #3 align 2 {
entry:
  %ref.tmp.i = alloca i8, align 1
  %cmp.not4 = icmp eq i32 %begin, %end
  br i1 %cmp.not4, label %for.end, label %for.body.lr.ph

for.body.lr.ph:                                   ; preds = %entry
  %d_qeConflict = getelementptr inbounds i8, ptr %this, i64 592
  %d_soiConflictMinimization = getelementptr inbounds i8, ptr %this, i64 776
  %d_soiVar = getelementptr inbounds i8, ptr %this, i64 304
  %d_qeInSoi = getelementptr inbounds i8, ptr %this, i64 416
  br label %for.body

for.body:                                         ; preds = %for.body.lr.ph, %for.body
  %i.05 = phi i32 [ %begin, %for.body.lr.ph ], [ %inc, %for.body ]
  %conv = zext i32 %i.05 to i64
  %0 = load ptr, ptr %d_qeConflict, align 8
  %add.ptr.i = getelementptr inbounds i32, ptr %0, i64 %conv
  %1 = load i32, ptr %add.ptr.i, align 4
  %2 = load i32, ptr %d_soiVar, align 8
  call void @_ZN4cvc58internal6theory5arith6linear24SimplexDecisionProcedure15addToInfeasFuncERNS0_9TimerStatEjj(ptr noundef nonnull align 8 dereferenceable(304) %this, ptr noundef nonnull align 8 dereferenceable(8) %d_soiConflictMinimization, i32 noundef %2, i32 noundef %1)
  call void @llvm.lifetime.start.p0(i64 1, ptr nonnull %ref.tmp.i)
  store i8 1, ptr %ref.tmp.i, align 1
  call void @_ZN4cvc58internal8DenseMapIbE3setEjRKb(ptr noundef nonnull align 8 dereferenceable(88) %d_qeInSoi, i32 noundef %1, ptr noundef nonnull align 1 dereferenceable(1) %ref.tmp.i)
  call void @llvm.lifetime.end.p0(i64 1, ptr nonnull %ref.tmp.i)
  %inc = add i32 %i.05, 1
  %cmp.not = icmp eq i32 %inc, %end
  br i1 %cmp.not, label %for.end, label %for.body, !llvm.loop !27

for.end:                                          ; preds = %for.body, %entry
  ret void
}